target datalayout = "e-m:e-p270:32:32-p271:32:32-p272:64:64-i64:64-i128:128-f80:128-n8:16:32:64-S128"
target triple = "x86_64-pc-linux-gnu"

@H5_libinit_g = external global i8, align 1
@H5_libterm_g = external global i8, align 1
@H5T_NATIVE_UCHAR_g = external global i64, align 8
@.str = private unnamed_addr constant [6 x i8] c"CLASS\00", align 1
@.str.3 = private unnamed_addr constant [4 x i8] c"1.2\00", align 1
@.str.10 = private unnamed_addr constant [8 x i8] c"PALETTE\00", align 1
@.str.11 = private unnamed_addr constant [12 x i8] c"PAL_VERSION\00", align 1

; Function Attrs: nounwind uwtable
define i32 @H5IMmake_palette(i64 noundef %0, ptr noundef %1, ptr noundef %2, ptr noundef %3) #0 {
  %5 = alloca i32, align 4
  %6 = alloca i64, align 8
  %7 = alloca ptr, align 8
  %8 = alloca ptr, align 8
  %9 = alloca ptr, align 8
  %10 = alloca i32, align 4
  %11 = alloca i32, align 4
  store i64 %0, ptr %6, align 8, !tbaa !3
  store ptr %1, ptr %7, align 8, !tbaa !7
  store ptr %2, ptr %8, align 8, !tbaa !17
  store ptr %3, ptr %9, align 8, !tbaa !7
  call void @llvm.lifetime.start.p0(i64 4, ptr %10) #7
  %12 = load ptr, ptr %7, align 8, !tbaa !7
  %13 = icmp eq ptr %12, null
  br i1 %13, label %14, label %15

14:                                               ; preds = %4
  store i32 -1, ptr %5, align 4
  store i32 1, ptr %11, align 4
  br label %62

15:                                               ; preds = %4
  %16 = load i64, ptr %6, align 8, !tbaa !3
  %17 = load ptr, ptr %7, align 8, !tbaa !7
  %18 = call i32 @H5LTfind_dataset(i64 noundef %16, ptr noundef %17)
  store i32 %18, ptr %10, align 4, !tbaa !15
  %19 = load i32, ptr %10, align 4, !tbaa !15
  %20 = icmp eq i32 %19, 1
  br i1 %20, label %21, label %22

21:                                               ; preds = %15
  store i32 0, ptr %5, align 4
  store i32 1, ptr %11, align 4
  br label %62

22:                                               ; preds = %15
  %23 = load i64, ptr %6, align 8, !tbaa !3
  %24 = load ptr, ptr %7, align 8, !tbaa !7
  %25 = load ptr, ptr %8, align 8, !tbaa !17
  %26 = load i8, ptr @H5_libinit_g, align 1, !tbaa !10, !range !12, !noundef !13
  %27 = trunc i8 %26 to i1
  br i1 %27, label %32, label %28

28:                                               ; preds = %22
  %29 = load i8, ptr @H5_libterm_g, align 1, !tbaa !10, !range !12, !noundef !13
  %30 = trunc i8 %29 to i1
  %31 = xor i1 %30, true
  br label %32

32:                                               ; preds = %28, %22
  %33 = phi i1 [ false, %22 ], [ %31, %28 ]
  %34 = xor i1 %33, true
  %35 = xor i1 %34, true
  %36 = zext i1 %35 to i32
  %37 = sext i32 %36 to i64
  %38 = call i64 @llvm.expect.i64(i64 %37, i64 0)
  %39 = icmp ne i64 %38, 0
  br i1 %39, label %40, label %42

40:                                               ; preds = %32
  %41 = call i32 @H5open()
  br label %43

42:                                               ; preds = %32
  br label %43

43:                                               ; preds = %42, %40
  %44 = load i64, ptr @H5T_NATIVE_UCHAR_g, align 8, !tbaa !3
  %45 = load ptr, ptr %9, align 8, !tbaa !7
  %46 = call i32 @H5LTmake_dataset(i64 noundef %23, ptr noundef %24, i32 noundef 2, ptr noundef %25, i64 noundef %44, ptr noundef %45)
  %47 = icmp slt i32 %46, 0
  br i1 %47, label %48, label %49

48:                                               ; preds = %43
  store i32 -1, ptr %5, align 4
  store i32 1, ptr %11, align 4
  br label %62

49:                                               ; preds = %43
  %50 = load i64, ptr %6, align 8, !tbaa !3
  %51 = load ptr, ptr %7, align 8, !tbaa !7
  %52 = call i32 @H5LTset_attribute_string(i64 noundef %50, ptr noundef %51, ptr noundef @.str, ptr noundef @.str.10)
  %53 = icmp slt i32 %52, 0
  br i1 %53, label %54, label %55

54:                                               ; preds = %49
  store i32 -1, ptr %5, align 4
  store i32 1, ptr %11, align 4
  br label %62

55:                                               ; preds = %49
  %56 = load i64, ptr %6, align 8, !tbaa !3
  %57 = load ptr, ptr %7, align 8, !tbaa !7
  %58 = call i32 @H5LTset_attribute_string(i64 noundef %56, ptr noundef %57, ptr noundef @.str.11, ptr noundef @.str.3)
  %59 = icmp slt i32 %58, 0
  br i1 %59, label %60, label %61

60:                                               ; preds = %55
  store i32 -1, ptr %5, align 4
  store i32 1, ptr %11, align 4
  br label %62

61:                                               ; preds = %55
  store i32 0, ptr %5, align 4
  store i32 1, ptr %11, align 4
  br label %62

62:                                               ; preds = %61, %60, %54, %48, %21, %14
  call void @llvm.lifetime.end.p0(i64 4, ptr %10) #7
  %63 = load i32, ptr %5, align 4
  ret i32 %63
}