; Function Attrs: nounwind uwtable
define range(i32 -1, 1) i32 @H5IMmake_palette(i64 noundef %0, ptr noundef %1, ptr noundef %2, ptr noundef %3) local_unnamed_addr #0 {
  %5 = icmp eq ptr %1, null
  br i1 %5, label %26, label %6

6:                                                ; preds = %4
  %7 = tail call i32 @H5LTfind_dataset(i64 noundef %0, ptr noundef nonnull %1) #8
  %8 = icmp eq i32 %7, 1
  br i1 %8, label %26, label %9

9:                                                ; preds = %6
  %10 = load i8, ptr @H5_libinit_g, align 1, !tbaa !7, !range !9, !noundef !10
  %11 = trunc nuw i8 %10 to i1
  %12 = load i8, ptr @H5_libterm_g, align 1, !range !9
  %13 = trunc nuw i8 %12 to i1
  %14 = select i1 %11, i1 true, i1 %13
  br i1 %14, label %17, label %15, !prof !11

15:                                               ; preds = %9
  %16 = tail call i32 @H5open() #8
  br label %17

17:                                               ; preds = %9, %15
  %18 = load i64, ptr @H5T_NATIVE_UCHAR_g, align 8, !tbaa !3
  %19 = tail call i32 @H5LTmake_dataset(i64 noundef %0, ptr noundef nonnull %1, i32 noundef 2, ptr noundef %2, i64 noundef %18, ptr noundef %3) #8
  %20 = icmp slt i32 %19, 0
  br i1 %20, label %26, label %21

21:                                               ; preds = %17
  %22 = tail call i32 @H5LTset_attribute_string(i64 noundef %0, ptr noundef nonnull %1, ptr noundef nonnull @.str, ptr noundef nonnull @.str.10) #8
  %23 = icmp slt i32 %22, 0
  br i1 %23, label %26, label %24

24:                                               ; preds = %21
  %25 = tail call i32 @H5LTset_attribute_string(i64 noundef %0, ptr noundef nonnull %1, ptr noundef nonnull @.str.11, ptr noundef nonnull @.str.3) #8
  %.lobit = ashr i32 %25, 31
  br label %26

26:                                               ; preds = %24, %21, %17, %6, %4
  %.0 = phi i32 [ -1, %4 ], [ 0, %6 ], [ -1, %17 ], [ -1, %21 ], [ %.lobit, %24 ]
  ret i32 %.0
}